; Function Attrs: nounwind uwtable
define internal i32 @tuple_contains(ptr noundef readonly captures(none) %0, ptr noundef %1) #0 {
  %3 = getelementptr i8, ptr %0, i64 16
  %4 = getelementptr inbounds nuw i8, ptr %0, i64 24
  br label %5

5:                                                ; preds = %2, %7
  %.010 = phi i64 [ 0, %2 ], [ %11, %7 ]
  %.val = load i64, ptr %3, align 8, !tbaa !107
  %6 = icmp slt i64 %.010, %.val
  br i1 %6, label %7, label %.critedge

.critedge:                                        ; preds = %7, %5
  %.08.lcssa = phi i32 [ %10, %7 ], [ 0, %5 ]
  ret i32 %.08.lcssa

7:                                                ; preds = %5
  %8 = getelementptr [1 x ptr], ptr %4, i64 0, i64 %.010
  %9 = load ptr, ptr %8, align 8, !tbaa !25
  %10 = tail call i32 @PyObject_RichCompareBool(ptr noundef %9, ptr noundef %1, i32 noundef 2) #9
  %11 = add nuw nsw i64 %.010, 1
  %12 = icmp eq i32 %10, 0
  br i1 %12, label %5, label %.critedge, !llvm.loop !142
}